target datalayout = "e-m:e-p270:32:32-p271:32:32-p272:64:64-i64:64-i128:128-f80:128-n8:16:32:64-S128"
target triple = "x86_64-pc-linux-gnu"

%"class.icu_77::UObject" = type { ptr }
%"class.icu_77::Locale" = type <{ %"class.icu_77::UObject", [12 x i8], [6 x i8], [4 x i8], [2 x i8], i32, [4 x i8], ptr, [157 x i8], [3 x i8], ptr, i8, [7 x i8] }>

@.str.10 = private unnamed_addr constant [9 x i8] c"standard\00", align 1
@.str.11 = private unnamed_addr constant [15 x i8] c"standard-short\00", align 1
@.str.12 = private unnamed_addr constant [16 x i8] c"standard-narrow\00", align 1
@.str.13 = private unnamed_addr constant [3 x i8] c"or\00", align 1
@.str.14 = private unnamed_addr constant [9 x i8] c"or-short\00", align 1
@.str.15 = private unnamed_addr constant [10 x i8] c"or-narrow\00", align 1
@.str.16 = private unnamed_addr constant [5 x i8] c"unit\00", align 1
@.str.17 = private unnamed_addr constant [11 x i8] c"unit-short\00", align 1
@.str.18 = private unnamed_addr constant [12 x i8] c"unit-narrow\00", align 1
@_ZN6icu_7713ListFormatterC1EPKNS_18ListFormatInternalE = unnamed_addr alias void (ptr, ptr), ptr @_ZN6icu_7713ListFormatterC2EPKNS_18ListFormatInternalE

; Function Attrs: inlinehint mustprogress nounwind uwtable
define internal noundef signext i8 @_ZL9U_FAILURE10UErrorCode(i32 noundef %0) #2 {
  %2 = alloca i32, align 4
  store i32 %0, ptr %2, align 4, !tbaa !15
  %3 = load i32, ptr %2, align 4, !tbaa !15
  %4 = icmp sgt i32 %3, 0
  %5 = zext i1 %4 to i8
  ret i8 %5
}

; Function Attrs: mustprogress uwtable
define noundef ptr @_ZN6icu_7713ListFormatter14createInstanceERKNS_6LocaleEPKcR10UErrorCode(ptr noundef nonnull align 8 dereferenceable(217) %0, ptr noundef %1, ptr noundef nonnull align 4 dereferenceable(4) %2) #1 align 2 personality ptr @__gxx_personality_v0 {
  %4 = alloca ptr, align 8
  %5 = alloca ptr, align 8
  %6 = alloca ptr, align 8
  %7 = alloca ptr, align 8
  %8 = alloca ptr, align 8
  %9 = alloca i32, align 4
  %10 = alloca ptr, align 8
  %11 = alloca ptr, align 8
  %12 = alloca i1, align 1
  %13 = alloca ptr, align 8
  %14 = alloca i32, align 4
  store ptr %0, ptr %5, align 8, !tbaa !57
  store ptr %1, ptr %6, align 8, !tbaa !17
  store ptr %2, ptr %7, align 8, !tbaa !22
  call void @llvm.lifetime.start.p0(i64 8, ptr %8) #12
  %15 = load ptr, ptr %5, align 8, !tbaa !57
  %16 = load ptr, ptr %6, align 8, !tbaa !17
  %17 = load ptr, ptr %7, align 8, !tbaa !22
  %18 = call noundef ptr @_ZN6icu_7713ListFormatter21getListFormatInternalERKNS_6LocaleEPKcR10UErrorCode(ptr noundef nonnull align 8 dereferenceable(217) %15, ptr noundef %16, ptr noundef nonnull align 4 dereferenceable(4) %17)
  store ptr %18, ptr %8, align 8, !tbaa !48
  %19 = load ptr, ptr %7, align 8, !tbaa !22
  %20 = load i32, ptr %19, align 4, !tbaa !15
  %21 = call noundef signext i8 @_ZL9U_FAILURE10UErrorCode(i32 noundef %20)
  %22 = icmp ne i8 %21, 0
  br i1 %22, label %23, label %24

23:                                               ; preds = %3
  store ptr null, ptr %4, align 8
  store i32 1, ptr %9, align 4
  br label %47

24:                                               ; preds = %3
  call void @llvm.lifetime.start.p0(i64 8, ptr %10) #12
  %25 = call noundef ptr @_ZN6icu_777UMemorynwEm(i64 noundef 24) #12
  %26 = icmp eq ptr %25, null
  store i1 false, ptr %12, align 1
  br i1 %26, label %30, label %27

27:                                               ; preds = %24
  store ptr %25, ptr %11, align 8
  store i1 true, ptr %12, align 1
  %28 = load ptr, ptr %8, align 8, !tbaa !48
  invoke void @_ZN6icu_7713ListFormatterC1EPKNS_18ListFormatInternalE(ptr noundef nonnull align 8 dereferenceable(24) %25, ptr noundef %28)
          to label %29 unwind label %36

29:                                               ; preds = %27
  br label %30

30:                                               ; preds = %29, %24
  %31 = phi ptr [ %25, %29 ], [ null, %24 ]
  store ptr %31, ptr %10, align 8, !tbaa !39
  %32 = load ptr, ptr %10, align 8, !tbaa !39
  %33 = icmp eq ptr %32, null
  br i1 %33, label %34, label %44

34:                                               ; preds = %30
  %35 = load ptr, ptr %7, align 8, !tbaa !22
  store i32 7, ptr %35, align 4, !tbaa !15
  store ptr null, ptr %4, align 8
  store i32 1, ptr %9, align 4
  br label %46

36:                                               ; preds = %27
  %37 = landingpad { ptr, i32 }
          cleanup
  %38 = extractvalue { ptr, i32 } %37, 0
  store ptr %38, ptr %13, align 8
  %39 = extractvalue { ptr, i32 } %37, 1
  store i32 %39, ptr %14, align 4
  %40 = load i1, ptr %12, align 1
  br i1 %40, label %41, label %43

41:                                               ; preds = %36
  %42 = load ptr, ptr %11, align 8
  call void @_ZN6icu_777UMemorydlEPv(ptr noundef %42) #12
  br label %43

43:                                               ; preds = %41, %36
  call void @llvm.lifetime.end.p0(i64 8, ptr %10) #12
  call void @llvm.lifetime.end.p0(i64 8, ptr %8) #12
  br label %49

44:                                               ; preds = %30
  %45 = load ptr, ptr %10, align 8, !tbaa !39
  store ptr %45, ptr %4, align 8
  store i32 1, ptr %9, align 4
  br label %46

46:                                               ; preds = %44, %34
  call void @llvm.lifetime.end.p0(i64 8, ptr %10) #12
  br label %47

47:                                               ; preds = %46, %23
  call void @llvm.lifetime.end.p0(i64 8, ptr %8) #12
  %48 = load ptr, ptr %4, align 8
  ret ptr %48

49:                                               ; preds = %43
  %50 = load ptr, ptr %13, align 8
  %51 = load i32, ptr %14, align 4
  %52 = insertvalue { ptr, i32 } poison, ptr %50, 0
  %53 = insertvalue { ptr, i32 } %52, i32 %51, 1
  resume { ptr, i32 } %53
}

; Function Attrs: mustprogress nounwind uwtable
define internal noundef ptr @_ZN6icu_77L22typeWidthToStyleStringE18UListFormatterType19UListFormatterWidth(i32 noundef %0, i32 noundef %1) #0 {
  %3 = alloca ptr, align 8
  %4 = alloca i32, align 4
  %5 = alloca i32, align 4
  store i32 %0, ptr %4, align 4, !tbaa !80
  store i32 %1, ptr %5, align 4, !tbaa !82
  %6 = load i32, ptr %4, align 4, !tbaa !80
  switch i32 %6, label %25 [
    i32 0, label %7
    i32 1, label %13
    i32 2, label %19
  ]

7:                                                ; preds = %2
  %8 = load i32, ptr %5, align 4, !tbaa !82
  switch i32 %8, label %12 [
    i32 0, label %9
    i32 1, label %10
    i32 2, label %11
  ]

9:                                                ; preds = %7
  store ptr @.str.10, ptr %3, align 8
  br label %26

10:                                               ; preds = %7
  store ptr @.str.11, ptr %3, align 8
  br label %26

11:                                               ; preds = %7
  store ptr @.str.12, ptr %3, align 8
  br label %26

12:                                               ; preds = %7
  store ptr null, ptr %3, align 8
  br label %26

13:                                               ; preds = %2
  %14 = load i32, ptr %5, align 4, !tbaa !82
  switch i32 %14, label %18 [
    i32 0, label %15
    i32 1, label %16
    i32 2, label %17
  ]

15:                                               ; preds = %13
  store ptr @.str.13, ptr %3, align 8
  br label %26

16:                                               ; preds = %13
  store ptr @.str.14, ptr %3, align 8
  br label %26

17:                                               ; preds = %13
  store ptr @.str.15, ptr %3, align 8
  br label %26

18:                                               ; preds = %13
  store ptr null, ptr %3, align 8
  br label %26

19:                                               ; preds = %2
  %20 = load i32, ptr %5, align 4, !tbaa !82
  switch i32 %20, label %24 [
    i32 0, label %21
    i32 1, label %22
    i32 2, label %23
  ]

21:                                               ; preds = %19
  store ptr @.str.16, ptr %3, align 8
  br label %26

22:                                               ; preds = %19
  store ptr @.str.17, ptr %3, align 8
  br label %26

23:                                               ; preds = %19
  store ptr @.str.18, ptr %3, align 8
  br label %26

24:                                               ; preds = %19
  store ptr null, ptr %3, align 8
  br label %26

25:                                               ; preds = %2
  store ptr null, ptr %3, align 8
  br label %26

26:                                               ; preds = %25, %24, %23, %22, %21, %18, %17, %16, %15, %12, %11, %10, %9
  %27 = load ptr, ptr %3, align 8
  ret ptr %27
}

; Function Attrs: mustprogress uwtable
define noundef ptr @_ZN6icu_7713ListFormatter14createInstanceERKNS_6LocaleE18UListFormatterType19UListFormatterWidthR10UErrorCode(ptr noundef nonnull align 8 dereferenceable(217) %0, i32 noundef %1, i32 noundef %2, ptr noundef nonnull align 4 dereferenceable(4) %3) #1 align 2 {
  %5 = alloca ptr, align 8
  %6 = alloca ptr, align 8
  %7 = alloca i32, align 4
  %8 = alloca i32, align 4
  %9 = alloca ptr, align 8
  %10 = alloca ptr, align 8
  %11 = alloca i32, align 4
  store ptr %0, ptr %6, align 8, !tbaa !57
  store i32 %1, ptr %7, align 4, !tbaa !80
  store i32 %2, ptr %8, align 4, !tbaa !82
  store ptr %3, ptr %9, align 8, !tbaa !22
  call void @llvm.lifetime.start.p0(i64 8, ptr %10) #12
  %12 = load i32, ptr %7, align 4, !tbaa !80
  %13 = load i32, ptr %8, align 4, !tbaa !82
  %14 = call noundef ptr @_ZN6icu_77L22typeWidthToStyleStringE18UListFormatterType19UListFormatterWidth(i32 noundef %12, i32 noundef %13)
  store ptr %14, ptr %10, align 8, !tbaa !17
  %15 = load ptr, ptr %10, align 8, !tbaa !17
  %16 = icmp eq ptr %15, null
  br i1 %16, label %17, label %19

17:                                               ; preds = %4
  %18 = load ptr, ptr %9, align 8, !tbaa !22
  store i32 1, ptr %18, align 4, !tbaa !15
  store ptr null, ptr %5, align 8
  store i32 1, ptr %11, align 4
  br label %24

19:                                               ; preds = %4
  %20 = load ptr, ptr %6, align 8, !tbaa !57
  %21 = load ptr, ptr %10, align 8, !tbaa !17
  %22 = load ptr, ptr %9, align 8, !tbaa !22
  %23 = call noundef ptr @_ZN6icu_7713ListFormatter14createInstanceERKNS_6LocaleEPKcR10UErrorCode(ptr noundef nonnull align 8 dereferenceable(217) %20, ptr noundef %21, ptr noundef nonnull align 4 dereferenceable(4) %22)
  store ptr %23, ptr %5, align 8
  store i32 1, ptr %11, align 4
  br label %24

24:                                               ; preds = %19, %17
  call void @llvm.lifetime.end.p0(i64 8, ptr %10) #12
  %25 = load ptr, ptr %5, align 8
  ret ptr %25
}

; Function Attrs: mustprogress uwtable
define noundef ptr @_ZN6icu_7713ListFormatter14createInstanceERKNS_6LocaleER10UErrorCode(ptr noundef nonnull align 8 dereferenceable(217) %0, ptr noundef nonnull align 4 dereferenceable(4) %1) #1 align 2 {
  %3 = alloca ptr, align 8
  %4 = alloca ptr, align 8
  store ptr %0, ptr %3, align 8, !tbaa !57
  store ptr %1, ptr %4, align 8, !tbaa !22
  %5 = load ptr, ptr %3, align 8, !tbaa !57
  %6 = load ptr, ptr %4, align 8, !tbaa !22
  %7 = call noundef ptr @_ZN6icu_7713ListFormatter14createInstanceERKNS_6LocaleE18UListFormatterType19UListFormatterWidthR10UErrorCode(ptr noundef nonnull align 8 dereferenceable(217) %5, i32 noundef 0, i32 noundef 0, ptr noundef nonnull align 4 dereferenceable(4) %6)
  ret ptr %7
}

; Function Attrs: mustprogress uwtable
define noundef ptr @_ZN6icu_7713ListFormatter14createInstanceER10UErrorCode(ptr noundef nonnull align 4 dereferenceable(4) %0) #1 align 2 personality ptr @__gxx_personality_v0 {
  %2 = alloca ptr, align 8
  %3 = alloca %"class.icu_77::Locale", align 8
  %4 = alloca ptr, align 8
  %5 = alloca i32, align 4
  store ptr %0, ptr %2, align 8, !tbaa !22
  call void @llvm.lifetime.start.p0(i64 224, ptr %3) #12
  call void @_ZN6icu_776LocaleC1Ev(ptr noundef nonnull align 8 dereferenceable(217) %3)
  %6 = load ptr, ptr %2, align 8, !tbaa !22
  %7 = invoke noundef ptr @_ZN6icu_7713ListFormatter14createInstanceERKNS_6LocaleER10UErrorCode(ptr noundef nonnull align 8 dereferenceable(217) %3, ptr noundef nonnull align 4 dereferenceable(4) %6)
          to label %8 unwind label %9

8:                                                ; preds = %1
  call void @_ZN6icu_776LocaleD1Ev(ptr noundef nonnull align 8 dereferenceable(217) %3) #12
  call void @llvm.lifetime.end.p0(i64 224, ptr %3) #12
  ret ptr %7

9:                                                ; preds = %1
  %10 = landingpad { ptr, i32 }
          cleanup
  %11 = extractvalue { ptr, i32 } %10, 0
  store ptr %11, ptr %4, align 8
  %12 = extractvalue { ptr, i32 } %10, 1
  store i32 %12, ptr %5, align 4
  call void @_ZN6icu_776LocaleD1Ev(ptr noundef nonnull align 8 dereferenceable(217) %3) #12
  call void @llvm.lifetime.end.p0(i64 224, ptr %3) #12
  br label %13

13:                                               ; preds = %9
  %14 = load ptr, ptr %4, align 8
  %15 = load i32, ptr %5, align 4
  %16 = insertvalue { ptr, i32 } poison, ptr %14, 0
  %17 = insertvalue { ptr, i32 } %16, i32 %15, 1
  resume { ptr, i32 } %17
}