; Function Attrs: mustprogress uwtable
define noundef ptr @_ZN6icu_7713ListFormatter14createInstanceER10UErrorCode(ptr noundef nonnull align 4 dereferenceable(4) %0) local_unnamed_addr #1 align 2 personality ptr @__gxx_personality_v0 {
  %2 = alloca %"class.icu_77::Locale", align 8
  call void @llvm.lifetime.start.p0(i64 224, ptr nonnull %2) #19
  call void @_ZN6icu_776LocaleC1Ev(ptr noundef nonnull align 8 dereferenceable(217) %2)
  %3 = invoke noundef ptr @_ZN6icu_7713ListFormatter21getListFormatInternalERKNS_6LocaleEPKcR10UErrorCode(ptr noundef nonnull align 8 dereferenceable(217) %2, ptr noundef nonnull @.str.10, ptr noundef nonnull align 4 dereferenceable(4) %0)
          to label %.noexc unwind label %12

.noexc:                                           ; preds = %1
  %4 = load i32, ptr %0, align 4, !tbaa !13
  %5 = icmp slt i32 %4, 1
  br i1 %5, label %6, label %_ZN6icu_7713ListFormatter14createInstanceERKNS_6LocaleER10UErrorCode.exit

6:                                                ; preds = %.noexc
  %7 = call noundef ptr @_ZN6icu_777UMemorynwEm(i64 noundef 24) #19
  %8 = icmp eq ptr %7, null
  br i1 %8, label %_ZN6icu_7713ListFormatter14createInstanceERKNS_6LocaleEPKcR10UErrorCode.exit.sink.split.i.i, label %9

9:                                                ; preds = %6
  invoke void @_ZN6icu_7713ListFormatterC1EPKNS_18ListFormatInternalE(ptr noundef nonnull align 8 dereferenceable(24) %7, ptr noundef %3)
          to label %_ZN6icu_7713ListFormatter14createInstanceERKNS_6LocaleER10UErrorCode.exit unwind label %10

10:                                               ; preds = %9
  %11 = landingpad { ptr, i32 }
          cleanup
  call void @_ZN6icu_777UMemorydlEPv(ptr noundef nonnull %7) #19
  br label %.body

_ZN6icu_7713ListFormatter14createInstanceERKNS_6LocaleEPKcR10UErrorCode.exit.sink.split.i.i: ; preds = %6
  store i32 7, ptr %0, align 4, !tbaa !13
  br label %_ZN6icu_7713ListFormatter14createInstanceERKNS_6LocaleER10UErrorCode.exit

_ZN6icu_7713ListFormatter14createInstanceERKNS_6LocaleER10UErrorCode.exit: ; preds = %_ZN6icu_7713ListFormatter14createInstanceERKNS_6LocaleEPKcR10UErrorCode.exit.sink.split.i.i, %9, %.noexc
  %.0.i.i = phi ptr [ null, %.noexc ], [ %7, %9 ], [ null, %_ZN6icu_7713ListFormatter14createInstanceERKNS_6LocaleEPKcR10UErrorCode.exit.sink.split.i.i ]
  call void @_ZN6icu_776LocaleD1Ev(ptr noundef nonnull align 8 dereferenceable(217) %2) #19
  call void @llvm.lifetime.end.p0(i64 224, ptr nonnull %2) #19
  ret ptr %.0.i.i

12:                                               ; preds = %1
  %13 = landingpad { ptr, i32 }
          cleanup
  br label %.body

.body:                                            ; preds = %10, %12
  %eh.lpad-body = phi { ptr, i32 } [ %13, %12 ], [ %11, %10 ]
  call void @_ZN6icu_776LocaleD1Ev(ptr noundef nonnull align 8 dereferenceable(217) %2) #19
  call void @llvm.lifetime.end.p0(i64 224, ptr nonnull %2) #19
  resume { ptr, i32 } %eh.lpad-body
}